(lp0
(iChatGroup
ChatGroup
p1
(dp2
S'messages'
p3
(lp4
S'        aa: hi [6/1/2016 2:13:51 PM]\n'
p5
aS'        aa: hiiii [6/1/2016 2:13:58 PM]\n'
p6
aS'        aa: hiiiiiiiiiiii [6/1/2016 2:14:18 PM]\n'
p7
aS'        aa: hhhhh [6/2/2016 10:30:27 AM]\n'
p8
aS'        aa: jjj [6/2/2016 12:23:53 PM]\n'
p9
asS'name'
p10
S'first'
p11
sS'users'
p12
(lp13
(iUser
User
p14
(dp15
S'username'
p16
S'aa'
p17
sS'lastname'
p18
S'aa'
p19
sS'password'
p20
S'aa'
p21
sS'firsname'
p22
S'aa'
p23
sbasba(iChatGroup
ChatGroup
p24
(dp25
g3
(lp26
S'        aa: hi [6/2/2016 12:27:50 PM]\n'
p27
aS'        bb: hi [6/2/2016 12:27:54 PM]\n'
p28
aS'        bb: hi [6/2/2016 12:28:15 PM]\n'
p29
aS'        aa: hi [6/2/2016 12:28:21 PM]\n'
p30
aS'        aa: hi [6/2/2016 12:31:42 PM]\n'
p31
asg10
S'second'
p32
sg12
(lp33
(iUser
User
p34
(dp35
g16
S'bb'
p36
sg18
S'bb'
p37
sg20
S'bb'
p38
sg22
S'bb'
p39
sba(iUser
User
p40
(dp41
g16
S'aa'
p42
sg18
S'aa'
p43
sg20
S'aa'
p44
sg22
S'aa'
p45
sbag34
asba(iChatGroup
ChatGroup
p46
(dp47
g3
(lp48
S'        bb: hhh [6/2/2016 12:32:19 PM]\n'
p49
aS'        bb: hhhhhh [6/2/2016 12:36:52 PM]\n'
p50
aS'        bb: ss [6/2/2016 12:37:28 PM]\n'
p51
aS'        bb: jjjj [6/2/2016 12:41:08 PM]\n'
p52
asg10
S'third'
p53
sg12
(lp54
(iUser
User
p55
(dp56
g16
S'bb'
p57
sg18
S'bb'
p58
sg20
S'bb'
p59
sg22
S'bb'
p60
sbag55
a(iUser
User
p61
(dp62
g16
S'aa'
p63
sg18
S'aa'
p64
sg20
S'aa'
p65
sg22
S'aa'
p66
sbasba(iChatGroup
ChatGroup
p67
(dp68
g3
(lp69
sg10
S'fourth'
p70
sg12
(lp71
(iUser
User
p72
(dp73
g16
S'bb'
p74
sg18
S'bb'
p75
sg20
S'bb'
p76
sg22
S'bb'
p77
sbag72
a(iUser
User
p78
(dp79
g16
S'aa'
p80
sg18
S'aa'
p81
sg20
S'aa'
p82
sg22
S'aa'
p83
sbasba(iChatGroup
ChatGroup
p84
(dp85
g3
(lp86
sg10
S'alone'
p87
sg12
(lp88
(iUser
User
p89
(dp90
g16
S'bb'
p91
sg18
S'bb'
p92
sg20
S'bb'
p93
sg22
S'bb'
p94
sbag89
asba(iChatGroup
ChatGroup
p95
(dp96
g3
(lp97
sg10
S''
p98
sg12
(lp99
(iUser
User
p100
(dp101
g16
S'cc'
p102
sg18
S'cc'
p103
sg20
S'cc'
p104
sg22
S'cc'
p105
sbag100
asba.