(lp0
(iChatGroup
ChatGroup
p1
(dp2
S'ID'
p3
I0
sS'messages'
p4
(lp5
sS'users'
p6
(lp7
(iUser
User
p8
(dp9
S'username'
p10
S'ccc'
p11
sS'lastname'
p12
S'bbb'
p13
sS'password'
p14
S'ddd'
p15
sS'firsname'
p16
S'aaa'
p17
sbasS'name'
p18
S'fdfdfd'
p19
sba(iChatGroup
ChatGroup
p20
(dp21
g4
(lp22
sg18
S'OnlyCCC'
p23
sg6
(lp24
(iUser
User
p25
(dp26
g10
S'ccc'
p27
sg12
S'bbb'
p28
sg14
S'ddd'
p29
sg16
S'aaa'
p30
sbasba.