(lp0
(iChatGroup
ChatGroup
p1
(dp2
S'messages'
p3
(lp4
sS'name'
p5
S'fff'
p6
sS'users'
p7
(lp8
(iUser
User
p9
(dp10
S'username'
p11
S'ddd'
p12
sS'lastname'
p13
S'hhh'
p14
sS'password'
p15
S'ggg'
p16
sS'firsname'
p17
S'ddd'
p18
sbasba.