(lp0
(iChatGroup
ChatGroup
p1
(dp2
S'users'
p3
(lp4
(iUser
User
p5
(dp6
S'username'
p7
S'ccc'
p8
sS'lastname'
p9
S'bbb'
p10
sS'password'
p11
S'ddd'
p12
sS'firsname'
p13
S'aaa'
p14
sbasS'messages'
p15
(lp16
sS'ID'
p17
I0
sS'name'
p18
S'fdfdfd'
p19
sba.