(lp0
(iChatGroup
ChatGroup
p1
(dp2
S'messages'
p3
(lp4
S'aa: hi [5/29/2016 2:06:08 PM]'
p5
aS'aa: hi [5/29/2016 2:19:40 PM]'
p6
aS'aa: hi [5/29/2016 2:24:50 PM]'
p7
aS'aa: jjj [6/1/2016 11:50:42 AM]'
p8
aS'aa: cc [6/1/2016 11:58:39 AM]'
p9
aS'aa: xx [6/1/2016 11:59:19 AM]'
p10
aS'aa: dd [6/1/2016 11:59:22 AM]'
p11
asS'name'
p12
S'first'
p13
sS'users'
p14
(lp15
(iUser
User
p16
(dp17
S'username'
p18
S'aa'
p19
sS'lastname'
p20
S'aa'
p21
sS'password'
p22
S'aa'
p23
sS'firsname'
p24
S'aa'
p25
sbasba.