(lp0
(iChatGroup
ChatGroup
p1
(dp2
S'users'
p3
(lp4
(iUser
User
p5
(dp6
S'username'
p7
S'ccc'
p8
sS'lastname'
p9
S'bbb'
p10
sS'password'
p11
S'ddd'
p12
sS'firsname'
p13
S'aaa'
p14
sbasS'messages'
p15
(lp16
sS'ID'
p17
I0
sS'name'
p18
S'fdfdfd'
p19
sba(iChatGroup
ChatGroup
p20
(dp21
g15
(lp22
sg18
S'OnlyCCC'
p23
sg3
(lp24
(iUser
User
p25
(dp26
g7
S'ccc'
p27
sg9
S'bbb'
p28
sg11
S'ddd'
p29
sg13
S'aaa'
p30
sbasba(iChatGroup
ChatGroup
p31
(dp32
g15
(lp33
sg18
S'fff'
p34
sg3
(lp35
(iUser
User
p36
(dp37
g7
S'ccc'
p38
sg9
S'bbb'
p39
sg11
S'ddd'
p40
sg13
S'aaa'
p41
sbasba(iChatGroup
ChatGroup
p42
(dp43
g15
(lp44
sg18
S'Idan'
p45
sg3
(lp46
(iUser
User
p47
(dp48
g7
S'ccc'
p49
sg9
S'bbb'
p50
sg11
S'ddd'
p51
sg13
S'aaa'
p52
sbasba(iChatGroup
ChatGroup
p53
(dp54
g15
(lp55
sg18
S'Dudu'
p56
sg3
(lp57
(iUser
User
p58
(dp59
g7
S'ccc'
p60
sg9
S'bbb'
p61
sg11
S'ddd'
p62
sg13
S'aaa'
p63
sba(iUser
User
p64
(dp65
g7
S'ids'
p66
sg9
S'Shimoni'
p67
sg11
S'ggg'
p68
sg13
S'Idan'
p69
sbasba(iChatGroup
ChatGroup
p70
(dp71
g15
(lp72
sg18
S'Bibi'
p73
sg3
(lp74
(iUser
User
p75
(dp76
g7
S'ccc'
p77
sg9
S'bbb'
p78
sg11
S'ddd'
p79
sg13
S'aaa'
p80
sba(iUser
User
p81
(dp82
g7
S'ids'
p83
sg9
S'Shimoni'
p84
sg11
S'ggg'
p85
sg13
S'Idan'
p86
sbasba(iChatGroup
ChatGroup
p87
(dp88
g15
(lp89
sg18
S'Buzi'
p90
sg3
(lp91
(iUser
User
p92
(dp93
g7
S'ids'
p94
sg9
S'Shimoni'
p95
sg11
S'ggg'
p96
sg13
S'Idan'
p97
sba(iUser
User
p98
(dp99
g7
S'ccc'
p100
sg9
S'bbb'
p101
sg11
S'ddd'
p102
sg13
S'aaa'
p103
sbasba(iChatGroup
ChatGroup
p104
(dp105
g15
(lp106
sg18
S'Kachlon'
p107
sg3
(lp108
(iUser
User
p109
(dp110
g7
S'ccc'
p111
sg9
S'bbb'
p112
sg11
S'ddd'
p113
sg13
S'aaa'
p114
sba(iUser
User
p115
(dp116
g7
S'ids'
p117
sg9
S'Shimoni'
p118
sg11
S'ggg'
p119
sg13
S'Idan'
p120
sbasba(iChatGroup
ChatGroup
p121
(dp122
g15
(lp123
sg18
S'Shai'
p124
sg3
(lp125
(iUser
User
p126
(dp127
g7
S'ids'
p128
sg9
S'Shimoni'
p129
sg11
S'ggg'
p130
sg13
S'Idan'
p131
sba(iUser
User
p132
(dp133
g7
S'ccc'
p134
sg9
S'bbb'
p135
sg11
S'ddd'
p136
sg13
S'aaa'
p137
sbasba.