(lp0
(iChatGroup
ChatGroup
p1
(dp2
S'users'
p3
(lp4
(iUser
User
p5
(dp6
S'username'
p7
S'ccc'
p8
sS'lastname'
p9
S'bbb'
p10
sS'password'
p11
S'ddd'
p12
sS'firsname'
p13
S'aaa'
p14
sbasS'messages'
p15
(lp16
sS'ID'
p17
I0
sS'name'
p18
S'fdfdfd'
p19
sba(iChatGroup
ChatGroup
p20
(dp21
g15
(lp22
sg18
S'OnlyCCC'
p23
sg3
(lp24
(iUser
User
p25
(dp26
g7
S'ccc'
p27
sg9
S'bbb'
p28
sg11
S'ddd'
p29
sg13
S'aaa'
p30
sbasba(iChatGroup
ChatGroup
p31
(dp32
g15
(lp33
sg18
S'fff'
p34
sg3
(lp35
(iUser
User
p36
(dp37
g7
S'ccc'
p38
sg9
S'bbb'
p39
sg11
S'ddd'
p40
sg13
S'aaa'
p41
sbasba.