(lp0
(iUser
User
p1
(dp2
S'username'
p3
S'aa'
p4
sS'lastname'
p5
S'aa'
p6
sS'password'
p7
S'aa'
p8
sS'firsname'
p9
S'aa'
p10
sba(iUser
User
p11
(dp12
g3
S'bb'
p13
sg5
S'bb'
p14
sg7
S'bb'
p15
sg9
S'bb'
p16
sba(iUser
User
p17
(dp18
g3
S'cc'
p19
sg5
S'cc'
p20
sg7
S'cc'
p21
sg9
S'cc'
p22
sba.