(lp0
(iUser
User
p1
(dp2
S'username'
p3
S'fff'
p4
sS'lastname'
p5
S'hhh'
p6
sS'password'
p7
S'ggg'
p8
sS'firsname'
p9
S'jjj'
p10
sba(iUser
User
p11
(dp12
g3
S'xxx'
p13
sg5
S'vvv'
p14
sg7
S'ccc'
p15
sg9
S'bbb'
p16
sba.